; Function Attrs: mustprogress nounwind uwtable
define hidden { ptr, i8 } @_ZNK25MergePrimitiveArrayStores29find_use_store_unidirectionalEPK9StoreNode(ptr nocapture noundef nonnull readonly align 8 dereferenceable(16) %0, ptr nocapture noundef readonly %1) local_unnamed_addr #1 align 2 {
  %3 = getelementptr inbounds i8, ptr %1, i64 16
  %4 = load ptr, ptr %3, align 8
  %5 = getelementptr inbounds i8, ptr %1, i64 32
  %6 = load i32, ptr %5, align 8
  %7 = zext i32 %6 to i64
  %8 = getelementptr inbounds ptr, ptr %4, i64 %7
  %.not = icmp eq i32 %6, 0
  br i1 %.not, label %.loopexit, label %.lr.ph

9:                                                ; preds = %.lr.ph
  %10 = getelementptr inbounds i8, ptr %.011, i64 8
  %11 = icmp ult ptr %10, %8
  br i1 %11, label %.lr.ph, label %.loopexit, !llvm.loop !23

.lr.ph:                                           ; preds = %2, %9
  %.011 = phi ptr [ %10, %9 ], [ %4, %2 ]
  %12 = load ptr, ptr %.011, align 8
  %13 = getelementptr inbounds i8, ptr %12, i64 44
  %14 = load i32, ptr %13, align 4
  %15 = and i32 %14, 127
  %16 = icmp eq i32 %15, 80
  %spec.select.i = select i1 %16, ptr %12, ptr null
  %17 = tail call noundef zeroext i1 @_ZNK25MergePrimitiveArrayStores19is_compatible_storeEPK9StoreNode(ptr noundef nonnull align 8 dereferenceable(16) %0, ptr noundef %spec.select.i)
  br i1 %17, label %18, label %9

18:                                               ; preds = %.lr.ph
  %19 = tail call noundef i32 @_ZN25MergePrimitiveArrayStores19cfg_status_for_pairEPK9StoreNodeS2_(ptr noundef %spec.select.i, ptr noundef nonnull %1)
  %20 = icmp eq i32 %19, 2
  %21 = icmp eq i32 %19, 1
  %22 = zext i1 %21 to i8
  %.sroa.0.0.i = select i1 %20, ptr null, ptr %spec.select.i
  %.fca.0.insert.i = insertvalue { ptr, i8 } poison, ptr %.sroa.0.0.i, 0
  %.fca.1.insert.i = insertvalue { ptr, i8 } %.fca.0.insert.i, i8 %22, 1
  br label %.loopexit

.loopexit:                                        ; preds = %9, %2, %18
  %.pn = phi { ptr, i8 } [ %.fca.1.insert.i, %18 ], [ zeroinitializer, %2 ], [ zeroinitializer, %9 ]
  ret { ptr, i8 } %.pn
}